target datalayout = "e-m:e-p270:32:32-p271:32:32-p272:64:64-i64:64-i128:128-f80:128-n8:16:32:64-S128"
target triple = "x86_64-pc-linux-gnu"

%"class.std::vector" = type { %"struct.std::_Vector_base" }
%"struct.std::_Vector_base" = type { %"struct.std::_Vector_base<int, std::allocator<int>>::_Vector_impl" }
%"struct.std::_Vector_base<int, std::allocator<int>>::_Vector_impl" = type { %"struct.std::_Vector_base<int, std::allocator<int>>::_Vector_impl_data" }
%"struct.std::_Vector_base<int, std::allocator<int>>::_Vector_impl_data" = type { ptr, ptr, ptr }

@_ZN8LightGBM7Network13num_machines_E = thread_local global i32 1, align 4
@_ZN8LightGBM7Network12block_start_E = thread_local global %"class.std::vector" zeroinitializer, align 8
@_ZN8LightGBM7Network10block_len_E = thread_local global %"class.std::vector" zeroinitializer, align 8
@.str.13 = private unnamed_addr constant [46 x i8] c"Please initialize the network interface first\00", align 1
@_ZTHN8LightGBM7Network12block_start_E = alias void (), ptr @__tls_init
@_ZTHN8LightGBM7Network10block_len_E = alias void (), ptr @__tls_init

; Function Attrs: mustprogress nounwind uwtable
define linkonce_odr noundef ptr @_ZNKSt6vectorIiSaIiEE11_M_data_ptrIiEEPT_S4_(ptr noundef nonnull align 8 dereferenceable(24) %0, ptr noundef %1) #4 comdat align 2 {
  %3 = alloca ptr, align 8
  %4 = alloca ptr, align 8
  store ptr %0, ptr %3, align 8, !tbaa !30
  store ptr %1, ptr %4, align 8, !tbaa !36
  %5 = load ptr, ptr %4, align 8, !tbaa !36
  ret ptr %5
}

; Function Attrs: mustprogress nounwind uwtable
define linkonce_odr noundef ptr @_ZNSt6vectorIiSaIiEE4dataEv(ptr noundef nonnull align 8 dereferenceable(24) %0) #4 comdat align 2 {
  %2 = alloca ptr, align 8
  store ptr %0, ptr %2, align 8, !tbaa !30
  %3 = load ptr, ptr %2, align 8
  %4 = getelementptr inbounds nuw %"struct.std::_Vector_base", ptr %3, i32 0, i32 0
  %5 = getelementptr inbounds nuw %"struct.std::_Vector_base<int, std::allocator<int>>::_Vector_impl_data", ptr %4, i32 0, i32 0
  %6 = load ptr, ptr %5, align 8, !tbaa !32
  %7 = call noundef ptr @_ZNKSt6vectorIiSaIiEE11_M_data_ptrIiEEPT_S4_(ptr noundef nonnull align 8 dereferenceable(24) %3, ptr noundef %6) #3
  ret ptr %7
}

; Function Attrs: uwtable
define weak_odr hidden noundef ptr @_ZTWN8LightGBM7Network10block_len_E() #11 comdat {
  call void @_ZTHN8LightGBM7Network10block_len_E()
  %1 = call align 8 ptr @llvm.threadlocal.address.p0(ptr align 8 @_ZN8LightGBM7Network10block_len_E)
  ret ptr %1
}

; Function Attrs: inlinehint mustprogress nounwind uwtable
define linkonce_odr noundef nonnull align 4 dereferenceable(4) ptr @_ZSt3minIiERKT_S2_S2_(ptr noundef nonnull align 4 dereferenceable(4) %0, ptr noundef nonnull align 4 dereferenceable(4) %1) #8 comdat {
  %3 = alloca ptr, align 8
  %4 = alloca ptr, align 8
  %5 = alloca ptr, align 8
  store ptr %0, ptr %4, align 8, !tbaa !36
  store ptr %1, ptr %5, align 8, !tbaa !36
  %6 = load ptr, ptr %5, align 8, !tbaa !36
  %7 = load i32, ptr %6, align 4, !tbaa !104
  %8 = load ptr, ptr %4, align 8, !tbaa !36
  %9 = load i32, ptr %8, align 4, !tbaa !104
  %10 = icmp slt i32 %7, %9
  br i1 %10, label %11, label %13

11:                                               ; preds = %2
  %12 = load ptr, ptr %5, align 8, !tbaa !36
  store ptr %12, ptr %3, align 8
  br label %15

13:                                               ; preds = %2
  %14 = load ptr, ptr %4, align 8, !tbaa !36
  store ptr %14, ptr %3, align 8
  br label %15

15:                                               ; preds = %13, %11
  %16 = load ptr, ptr %3, align 8
  ret ptr %16
}

; Function Attrs: mustprogress nounwind uwtable
define linkonce_odr noundef nonnull align 4 dereferenceable(4) ptr @_ZNSt6vectorIiSaIiEEixEm(ptr noundef nonnull align 8 dereferenceable(24) %0, i64 noundef %1) #4 comdat align 2 {
  %3 = alloca ptr, align 8
  %4 = alloca i64, align 8
  store ptr %0, ptr %3, align 8, !tbaa !30
  store i64 %1, ptr %4, align 8, !tbaa !42
  %5 = load ptr, ptr %3, align 8
  %6 = getelementptr inbounds nuw %"struct.std::_Vector_base", ptr %5, i32 0, i32 0
  %7 = getelementptr inbounds nuw %"struct.std::_Vector_base<int, std::allocator<int>>::_Vector_impl_data", ptr %6, i32 0, i32 0
  %8 = load ptr, ptr %7, align 8, !tbaa !32
  %9 = load i64, ptr %4, align 8, !tbaa !42
  %10 = getelementptr inbounds nuw i32, ptr %8, i64 %9
  ret ptr %10
}

; Function Attrs: uwtable
define weak_odr hidden noundef ptr @_ZTWN8LightGBM7Network12block_start_E() #11 comdat {
  call void @_ZTHN8LightGBM7Network12block_start_E()
  %1 = call align 8 ptr @llvm.threadlocal.address.p0(ptr align 8 @_ZN8LightGBM7Network12block_start_E)
  ret ptr %1
}

; Function Attrs: mustprogress uwtable
define void @_ZN8LightGBM7Network9AllreduceEPciiS1_RKPFvPKcS1_iiE(ptr noundef %0, i32 noundef %1, i32 noundef %2, ptr noundef %3, ptr noundef nonnull align 8 dereferenceable(8) %4) #10 align 2 {
  %6 = alloca ptr, align 8
  %7 = alloca i32, align 4
  %8 = alloca i32, align 4
  %9 = alloca ptr, align 8
  %10 = alloca ptr, align 8
  %11 = alloca i32, align 4
  %12 = alloca i32, align 4
  %13 = alloca i32, align 4
  %14 = alloca i32, align 4
  %15 = alloca i32, align 4
  %16 = alloca i32, align 4
  store ptr %0, ptr %6, align 8, !tbaa !65
  store i32 %1, ptr %7, align 4, !tbaa !104
  store i32 %2, ptr %8, align 4, !tbaa !104
  store ptr %3, ptr %9, align 8, !tbaa !65
  store ptr %4, ptr %10, align 8, !tbaa !316
  %17 = call align 4 ptr @llvm.threadlocal.address.p0(ptr align 4 @_ZN8LightGBM7Network13num_machines_E)
  %18 = load i32, ptr %17, align 4, !tbaa !104
  %19 = icmp sle i32 %18, 1
  br i1 %19, label %20, label %21

20:                                               ; preds = %5
  call void (ptr, ...) @_ZN8LightGBM3Log5FatalEPKcz(ptr noundef @.str.13)
  br label %21

21:                                               ; preds = %20, %5
  call void @llvm.lifetime.start.p0(i64 4, ptr %11) #3
  %22 = load i32, ptr %7, align 4, !tbaa !104
  %23 = load i32, ptr %8, align 4, !tbaa !104
  %24 = sdiv i32 %22, %23
  store i32 %24, ptr %11, align 4, !tbaa !104
  %25 = load i32, ptr %11, align 4, !tbaa !104
  %26 = call align 4 ptr @llvm.threadlocal.address.p0(ptr align 4 @_ZN8LightGBM7Network13num_machines_E)
  %27 = load i32, ptr %26, align 4, !tbaa !104
  %28 = icmp slt i32 %25, %27
  br i1 %28, label %32, label %29

29:                                               ; preds = %21
  %30 = load i32, ptr %7, align 4, !tbaa !104
  %31 = icmp slt i32 %30, 4096
  br i1 %31, label %32, label %38

32:                                               ; preds = %29, %21
  %33 = load ptr, ptr %6, align 8, !tbaa !65
  %34 = load i32, ptr %7, align 4, !tbaa !104
  %35 = load i32, ptr %8, align 4, !tbaa !104
  %36 = load ptr, ptr %9, align 8, !tbaa !65
  %37 = load ptr, ptr %10, align 8, !tbaa !316
  call void @_ZN8LightGBM7Network20AllreduceByAllGatherEPciiS1_RKPFvPKcS1_iiE(ptr noundef %33, i32 noundef %34, i32 noundef %35, ptr noundef %36, ptr noundef nonnull align 8 dereferenceable(8) %37)
  store i32 1, ptr %12, align 4
  br label %129

38:                                               ; preds = %29
  call void @llvm.lifetime.start.p0(i64 4, ptr %13) #3
  %39 = load i32, ptr %11, align 4, !tbaa !104
  %40 = call align 4 ptr @llvm.threadlocal.address.p0(ptr align 4 @_ZN8LightGBM7Network13num_machines_E)
  %41 = load i32, ptr %40, align 4, !tbaa !104
  %42 = add nsw i32 %39, %41
  %43 = sub nsw i32 %42, 1
  %44 = call align 4 ptr @llvm.threadlocal.address.p0(ptr align 4 @_ZN8LightGBM7Network13num_machines_E)
  %45 = load i32, ptr %44, align 4, !tbaa !104
  %46 = sdiv i32 %43, %45
  store i32 %46, ptr %13, align 4, !tbaa !104
  %47 = load i32, ptr %13, align 4, !tbaa !104
  %48 = icmp slt i32 %47, 1
  br i1 %48, label %49, label %50

49:                                               ; preds = %38
  store i32 1, ptr %13, align 4, !tbaa !104
  br label %50

50:                                               ; preds = %49, %38
  %51 = call ptr @_ZTWN8LightGBM7Network12block_start_E()
  %52 = call noundef nonnull align 4 dereferenceable(4) ptr @_ZNSt6vectorIiSaIiEEixEm(ptr noundef nonnull align 8 dereferenceable(24) %51, i64 noundef 0) #3
  store i32 0, ptr %52, align 4, !tbaa !104
  call void @llvm.lifetime.start.p0(i64 4, ptr %14) #3
  store i32 0, ptr %14, align 4, !tbaa !104
  br label %53

53:                                               ; preds = %93, %50
  %54 = load i32, ptr %14, align 4, !tbaa !104
  %55 = call align 4 ptr @llvm.threadlocal.address.p0(ptr align 4 @_ZN8LightGBM7Network13num_machines_E)
  %56 = load i32, ptr %55, align 4, !tbaa !104
  %57 = sub nsw i32 %56, 1
  %58 = icmp slt i32 %54, %57
  br i1 %58, label %60, label %59

59:                                               ; preds = %53
  store i32 2, ptr %12, align 4
  call void @llvm.lifetime.end.p0(i64 4, ptr %14) #3
  br label %96

60:                                               ; preds = %53
  call void @llvm.lifetime.start.p0(i64 4, ptr %15) #3
  %61 = load i32, ptr %13, align 4, !tbaa !104
  %62 = load i32, ptr %8, align 4, !tbaa !104
  %63 = mul nsw i32 %61, %62
  store i32 %63, ptr %15, align 4, !tbaa !104
  call void @llvm.lifetime.start.p0(i64 4, ptr %16) #3
  %64 = load i32, ptr %7, align 4, !tbaa !104
  %65 = call ptr @_ZTWN8LightGBM7Network12block_start_E()
  %66 = load i32, ptr %14, align 4, !tbaa !104
  %67 = sext i32 %66 to i64
  %68 = call noundef nonnull align 4 dereferenceable(4) ptr @_ZNSt6vectorIiSaIiEEixEm(ptr noundef nonnull align 8 dereferenceable(24) %65, i64 noundef %67) #3
  %69 = load i32, ptr %68, align 4, !tbaa !104
  %70 = sub nsw i32 %64, %69
  store i32 %70, ptr %16, align 4, !tbaa !104
  %71 = call noundef nonnull align 4 dereferenceable(4) ptr @_ZSt3minIiERKT_S2_S2_(ptr noundef nonnull align 4 dereferenceable(4) %15, ptr noundef nonnull align 4 dereferenceable(4) %16)
  %72 = load i32, ptr %71, align 4, !tbaa !104
  %73 = call ptr @_ZTWN8LightGBM7Network10block_len_E()
  %74 = load i32, ptr %14, align 4, !tbaa !104
  %75 = sext i32 %74 to i64
  %76 = call noundef nonnull align 4 dereferenceable(4) ptr @_ZNSt6vectorIiSaIiEEixEm(ptr noundef nonnull align 8 dereferenceable(24) %73, i64 noundef %75) #3
  store i32 %72, ptr %76, align 4, !tbaa !104
  call void @llvm.lifetime.end.p0(i64 4, ptr %16) #3
  call void @llvm.lifetime.end.p0(i64 4, ptr %15) #3
  %77 = call ptr @_ZTWN8LightGBM7Network12block_start_E()
  %78 = load i32, ptr %14, align 4, !tbaa !104
  %79 = sext i32 %78 to i64
  %80 = call noundef nonnull align 4 dereferenceable(4) ptr @_ZNSt6vectorIiSaIiEEixEm(ptr noundef nonnull align 8 dereferenceable(24) %77, i64 noundef %79) #3
  %81 = load i32, ptr %80, align 4, !tbaa !104
  %82 = call ptr @_ZTWN8LightGBM7Network10block_len_E()
  %83 = load i32, ptr %14, align 4, !tbaa !104
  %84 = sext i32 %83 to i64
  %85 = call noundef nonnull align 4 dereferenceable(4) ptr @_ZNSt6vectorIiSaIiEEixEm(ptr noundef nonnull align 8 dereferenceable(24) %82, i64 noundef %84) #3
  %86 = load i32, ptr %85, align 4, !tbaa !104
  %87 = add nsw i32 %81, %86
  %88 = call ptr @_ZTWN8LightGBM7Network12block_start_E()
  %89 = load i32, ptr %14, align 4, !tbaa !104
  %90 = add nsw i32 %89, 1
  %91 = sext i32 %90 to i64
  %92 = call noundef nonnull align 4 dereferenceable(4) ptr @_ZNSt6vectorIiSaIiEEixEm(ptr noundef nonnull align 8 dereferenceable(24) %88, i64 noundef %91) #3
  store i32 %87, ptr %92, align 4, !tbaa !104
  br label %93

93:                                               ; preds = %60
  %94 = load i32, ptr %14, align 4, !tbaa !104
  %95 = add nsw i32 %94, 1
  store i32 %95, ptr %14, align 4, !tbaa !104
  br label %53, !llvm.loop !317

96:                                               ; preds = %59
  %97 = load i32, ptr %7, align 4, !tbaa !104
  %98 = call ptr @_ZTWN8LightGBM7Network12block_start_E()
  %99 = call align 4 ptr @llvm.threadlocal.address.p0(ptr align 4 @_ZN8LightGBM7Network13num_machines_E)
  %100 = load i32, ptr %99, align 4, !tbaa !104
  %101 = sub nsw i32 %100, 1
  %102 = sext i32 %101 to i64
  %103 = call noundef nonnull align 4 dereferenceable(4) ptr @_ZNSt6vectorIiSaIiEEixEm(ptr noundef nonnull align 8 dereferenceable(24) %98, i64 noundef %102) #3
  %104 = load i32, ptr %103, align 4, !tbaa !104
  %105 = sub nsw i32 %97, %104
  %106 = call ptr @_ZTWN8LightGBM7Network10block_len_E()
  %107 = call align 4 ptr @llvm.threadlocal.address.p0(ptr align 4 @_ZN8LightGBM7Network13num_machines_E)
  %108 = load i32, ptr %107, align 4, !tbaa !104
  %109 = sub nsw i32 %108, 1
  %110 = sext i32 %109 to i64
  %111 = call noundef nonnull align 4 dereferenceable(4) ptr @_ZNSt6vectorIiSaIiEEixEm(ptr noundef nonnull align 8 dereferenceable(24) %106, i64 noundef %110) #3
  store i32 %105, ptr %111, align 4, !tbaa !104
  %112 = load ptr, ptr %6, align 8, !tbaa !65
  %113 = load i32, ptr %7, align 4, !tbaa !104
  %114 = load i32, ptr %8, align 4, !tbaa !104
  %115 = call ptr @_ZTWN8LightGBM7Network12block_start_E()
  %116 = call noundef ptr @_ZNSt6vectorIiSaIiEE4dataEv(ptr noundef nonnull align 8 dereferenceable(24) %115) #3
  %117 = call ptr @_ZTWN8LightGBM7Network10block_len_E()
  %118 = call noundef ptr @_ZNSt6vectorIiSaIiEE4dataEv(ptr noundef nonnull align 8 dereferenceable(24) %117) #3
  %119 = load ptr, ptr %9, align 8, !tbaa !65
  %120 = load i32, ptr %7, align 4, !tbaa !104
  %121 = load ptr, ptr %10, align 8, !tbaa !316
  call void @_ZN8LightGBM7Network13ReduceScatterEPciiPKiS3_S1_iRKPFvPKcS1_iiE(ptr noundef %112, i32 noundef %113, i32 noundef %114, ptr noundef %116, ptr noundef %118, ptr noundef %119, i32 noundef %120, ptr noundef nonnull align 8 dereferenceable(8) %121)
  %122 = load ptr, ptr %9, align 8, !tbaa !65
  %123 = call ptr @_ZTWN8LightGBM7Network12block_start_E()
  %124 = call noundef ptr @_ZNSt6vectorIiSaIiEE4dataEv(ptr noundef nonnull align 8 dereferenceable(24) %123) #3
  %125 = call ptr @_ZTWN8LightGBM7Network10block_len_E()
  %126 = call noundef ptr @_ZNSt6vectorIiSaIiEE4dataEv(ptr noundef nonnull align 8 dereferenceable(24) %125) #3
  %127 = load ptr, ptr %9, align 8, !tbaa !65
  %128 = load i32, ptr %7, align 4, !tbaa !104
  call void @_ZN8LightGBM7Network9AllgatherEPcPKiS3_S1_i(ptr noundef %122, ptr noundef %124, ptr noundef %126, ptr noundef %127, i32 noundef %128)
  call void @llvm.lifetime.end.p0(i64 4, ptr %13) #3
  store i32 0, ptr %12, align 4
  br label %129

129:                                              ; preds = %96, %32
  call void @llvm.lifetime.end.p0(i64 4, ptr %11) #3
  %130 = load i32, ptr %12, align 4
  switch i32 %130, label %132 [
    i32 0, label %131
    i32 1, label %131
  ]

131:                                              ; preds = %129, %129
  ret void

132:                                              ; preds = %129
  unreachable
}