; Function Attrs: uwtable
define void @_ZN8LightGBM7Network9AllreduceEPciiS1_RKPFvPKcS1_iiE(ptr noundef %0, i32 noundef %1, i32 noundef %2, ptr noundef %3, ptr noundef nonnull align 8 dereferenceable(8) %4) local_unnamed_addr #11 align 2 {
  %6 = tail call align 4 ptr @llvm.threadlocal.address.p0(ptr align 4 @_ZN8LightGBM7Network13num_machines_E)
  %7 = load i32, ptr %6, align 4, !tbaa !69
  %8 = icmp slt i32 %7, 2
  br i1 %8, label %9, label %10

9:                                                ; preds = %5
  tail call void (ptr, ...) @_ZN8LightGBM3Log5FatalEPKcz(ptr noundef nonnull @.str.13)
  %.pre = load i32, ptr %6, align 4, !tbaa !69
  br label %10

10:                                               ; preds = %9, %5
  %11 = phi i32 [ %.pre, %9 ], [ %7, %5 ]
  %12 = sdiv i32 %1, %2
  %13 = icmp slt i32 %12, %11
  %14 = icmp slt i32 %1, 4096
  %or.cond = or i1 %14, %13
  br i1 %or.cond, label %15, label %16

15:                                               ; preds = %10
  tail call void @_ZN8LightGBM7Network20AllreduceByAllGatherEPciiS1_RKPFvPKcS1_iiE(ptr noundef %0, i32 noundef %1, i32 noundef %2, ptr noundef %3, ptr noundef nonnull align 8 dereferenceable(8) %4)
  br label %62

16:                                               ; preds = %10
  tail call void @_ZTHN8LightGBM7Network12block_start_E()
  %17 = tail call noundef align 8 ptr @llvm.threadlocal.address.p0(ptr align 8 @_ZN8LightGBM7Network12block_start_E)
  %18 = load ptr, ptr %17, align 8, !tbaa !9
  store i32 0, ptr %18, align 4, !tbaa !69
  %19 = load i32, ptr %6, align 4, !tbaa !69
  %20 = icmp sgt i32 %19, 1
  br i1 %20, label %.lr.ph, label %.._crit_edge_crit_edge

.._crit_edge_crit_edge:                           ; preds = %16
  %.pre39 = tail call noundef align 8 ptr @llvm.threadlocal.address.p0(ptr align 8 @_ZN8LightGBM7Network10block_len_E)
  br label %._crit_edge

.lr.ph:                                           ; preds = %16
  %21 = add i32 %12, -1
  %22 = add i32 %21, %11
  %23 = sdiv i32 %22, %11
  %spec.store.select = tail call i32 @llvm.smax.i32(i32 %23, i32 1)
  %24 = mul nsw i32 %spec.store.select, %2
  %25 = tail call align 8 ptr @llvm.threadlocal.address.p0(ptr align 8 @_ZN8LightGBM7Network10block_len_E)
  br label %42

._crit_edge:                                      ; preds = %42, %.._crit_edge_crit_edge
  %.pre-phi = phi ptr [ %.pre39, %.._crit_edge_crit_edge ], [ %25, %42 ]
  tail call void @_ZTHN8LightGBM7Network12block_start_E()
  %26 = load i32, ptr %6, align 4, !tbaa !69
  %27 = load ptr, ptr %17, align 8, !tbaa !9
  %28 = sext i32 %26 to i64
  %29 = getelementptr i32, ptr %27, i64 %28
  %30 = getelementptr i8, ptr %29, i64 -4
  %31 = load i32, ptr %30, align 4, !tbaa !69
  %32 = sub nsw i32 %1, %31
  tail call void @_ZTHN8LightGBM7Network10block_len_E()
  %33 = load i32, ptr %6, align 4, !tbaa !69
  %34 = load ptr, ptr %.pre-phi, align 8, !tbaa !9
  %35 = sext i32 %33 to i64
  %36 = getelementptr i32, ptr %34, i64 %35
  %37 = getelementptr i8, ptr %36, i64 -4
  store i32 %32, ptr %37, align 4, !tbaa !69
  tail call void @_ZTHN8LightGBM7Network12block_start_E()
  %38 = load ptr, ptr %17, align 8, !tbaa !9
  tail call void @_ZTHN8LightGBM7Network10block_len_E()
  %39 = load ptr, ptr %.pre-phi, align 8, !tbaa !9
  tail call void @_ZN8LightGBM7Network13ReduceScatterEPciiPKiS3_S1_iRKPFvPKcS1_iiE(ptr noundef %0, i32 noundef %1, i32 noundef %2, ptr noundef %38, ptr noundef %39, ptr noundef %3, i32 noundef %1, ptr noundef nonnull align 8 dereferenceable(8) %4)
  tail call void @_ZTHN8LightGBM7Network12block_start_E()
  %40 = load ptr, ptr %17, align 8, !tbaa !9
  tail call void @_ZTHN8LightGBM7Network10block_len_E()
  %41 = load ptr, ptr %.pre-phi, align 8, !tbaa !9
  tail call void @_ZN8LightGBM7Network9AllgatherEPcPKiS3_S1_i(ptr noundef %3, ptr noundef %40, ptr noundef %41, ptr noundef %3, i32 noundef %1)
  br label %62

42:                                               ; preds = %.lr.ph, %42
  %indvars.iv = phi i64 [ 0, %.lr.ph ], [ %indvars.iv.next, %42 ]
  tail call void @_ZTHN8LightGBM7Network12block_start_E()
  %43 = load ptr, ptr %17, align 8, !tbaa !9
  %44 = getelementptr inbounds nuw i32, ptr %43, i64 %indvars.iv
  %45 = load i32, ptr %44, align 4, !tbaa !69
  %46 = sub nsw i32 %1, %45
  %.sroa.speculated = tail call i32 @llvm.smin.i32(i32 %46, i32 %24)
  tail call void @_ZTHN8LightGBM7Network10block_len_E()
  %47 = load ptr, ptr %25, align 8, !tbaa !9
  %48 = getelementptr inbounds nuw i32, ptr %47, i64 %indvars.iv
  store i32 %.sroa.speculated, ptr %48, align 4, !tbaa !69
  tail call void @_ZTHN8LightGBM7Network12block_start_E()
  %49 = load ptr, ptr %17, align 8, !tbaa !9
  %50 = getelementptr inbounds nuw i32, ptr %49, i64 %indvars.iv
  %51 = load i32, ptr %50, align 4, !tbaa !69
  tail call void @_ZTHN8LightGBM7Network10block_len_E()
  %52 = load ptr, ptr %25, align 8, !tbaa !9
  %53 = getelementptr inbounds nuw i32, ptr %52, i64 %indvars.iv
  %54 = load i32, ptr %53, align 4, !tbaa !69
  %55 = add nsw i32 %54, %51
  tail call void @_ZTHN8LightGBM7Network12block_start_E()
  %indvars.iv.next = add nuw nsw i64 %indvars.iv, 1
  %56 = load ptr, ptr %17, align 8, !tbaa !9
  %57 = getelementptr inbounds nuw i32, ptr %56, i64 %indvars.iv.next
  store i32 %55, ptr %57, align 4, !tbaa !69
  %58 = load i32, ptr %6, align 4, !tbaa !69
  %59 = add nsw i32 %58, -1
  %60 = sext i32 %59 to i64
  %61 = icmp slt i64 %indvars.iv.next, %60
  br i1 %61, label %42, label %._crit_edge, !llvm.loop !126

62:                                               ; preds = %._crit_edge, %15
  ret void
}